; Function Attrs: mustprogress uwtable
define hidden void @_ZN7nanogui6Screen13center_windowEPNS_6WindowE(ptr nocapture noundef nonnull readonly align 8 dereferenceable(384) %0, ptr noundef %1) local_unnamed_addr #3 align 2 {
_ZN7nanogui5ArrayIiLm2EEC2Ei.exit.critedge:
  %2 = getelementptr inbounds i8, ptr %1, i64 48
  br label %3

3:                                                ; preds = %3, %_ZN7nanogui5ArrayIiLm2EEC2Ei.exit.critedge
  %.not8.i = phi i1 [ true, %_ZN7nanogui5ArrayIiLm2EEC2Ei.exit.critedge ], [ false, %3 ]
  %.07.i = phi i64 [ 0, %_ZN7nanogui5ArrayIiLm2EEC2Ei.exit.critedge ], [ 1, %3 ]
  %4 = getelementptr inbounds [2 x i32], ptr %2, i64 0, i64 %.07.i
  %5 = load i32, ptr %4, align 4
  %.not.i = icmp eq i32 %5, 0
  %or.cond.i = and i1 %.not8.i, %.not.i
  br i1 %or.cond.i, label %3, label %_ZNK7nanogui5ArrayIiLm2EEeqERKS1_.exit, !llvm.loop !47

_ZNK7nanogui5ArrayIiLm2EEeqERKS1_.exit:           ; preds = %3
  br i1 %.not.i, label %6, label %_ZN7nanoguimiERKNS_5ArrayIiLm2EEES3_.exit.critedge

6:                                                ; preds = %_ZNK7nanogui5ArrayIiLm2EEeqERKS1_.exit
  %7 = getelementptr inbounds i8, ptr %0, i64 152
  %8 = load ptr, ptr %7, align 8
  %9 = load ptr, ptr %1, align 8
  %10 = getelementptr inbounds i8, ptr %9, i64 96
  %11 = load ptr, ptr %10, align 8
  %12 = tail call i64 %11(ptr noundef nonnull align 8 dereferenceable(186) %1, ptr noundef %8)
  store i64 %12, ptr %2, align 8
  %13 = load ptr, ptr %7, align 8
  %14 = load ptr, ptr %1, align 8
  %15 = getelementptr inbounds i8, ptr %14, i64 104
  %16 = load ptr, ptr %15, align 8
  tail call void %16(ptr noundef nonnull align 8 dereferenceable(186) %1, ptr noundef %13)
  br label %_ZN7nanoguimiERKNS_5ArrayIiLm2EEES3_.exit.critedge

_ZN7nanoguimiERKNS_5ArrayIiLm2EEES3_.exit.critedge: ; preds = %6, %_ZNK7nanogui5ArrayIiLm2EEeqERKS1_.exit
  %17 = getelementptr inbounds i8, ptr %0, i64 48
  %18 = load i32, ptr %17, align 8
  %19 = load i32, ptr %2, align 4
  %20 = sub nsw i32 %18, %19
  %21 = getelementptr inbounds i8, ptr %0, i64 52
  %22 = load i32, ptr %21, align 4
  %23 = getelementptr inbounds i8, ptr %1, i64 52
  %24 = load i32, ptr %23, align 4
  %25 = sub nsw i32 %22, %24
  %26 = sdiv i32 %20, 2
  %27 = sdiv i32 %25, 2
  %28 = getelementptr inbounds i8, ptr %1, i64 40
  %.sroa.017.sroa.2.0.insert.ext = zext i32 %27 to i64
  %.sroa.017.sroa.2.0.insert.shift = shl nuw i64 %.sroa.017.sroa.2.0.insert.ext, 32
  %.sroa.017.sroa.0.0.insert.ext = zext i32 %26 to i64
  %.sroa.017.sroa.0.0.insert.insert = or disjoint i64 %.sroa.017.sroa.2.0.insert.shift, %.sroa.017.sroa.0.0.insert.ext
  store i64 %.sroa.017.sroa.0.0.insert.insert, ptr %28, align 8
  ret void
}